; Function Attrs: mustprogress nounwind uwtable
define hidden void @_ZN15G1CollectedHeap7collectEN7GCCause5CauseE(ptr noundef nonnull align 8 dereferenceable(1488) %0, i32 noundef %1) unnamed_addr #0 align 2 {
  %3 = alloca %class.G1GCCounters, align 8
  %4 = alloca %class.G1GCCounters, align 8
  call void @llvm.lifetime.start.p0(i64 12, ptr nonnull %3)
  %5 = load ptr, ptr @Heap_lock, align 8
  %.not.i.i.i = icmp eq ptr %5, null
  br i1 %.not.i.i.i, label %_ZN11MutexLockerC2EP5MutexNS0_18SafepointCheckFlagE.exit.thread.i, label %6

_ZN11MutexLockerC2EP5MutexNS0_18SafepointCheckFlagE.exit.thread.i: ; preds = %2
  call void @_ZN12G1GCCountersC1EP15G1CollectedHeap(ptr noundef nonnull align 4 dereferenceable(12) %3, ptr noundef nonnull %0) #23
  br label %_ZL19collection_countersP15G1CollectedHeap.exit

6:                                                ; preds = %2
  tail call void @_ZN5Mutex4lockEv(ptr noundef nonnull align 8 dereferenceable(104) %5) #23
  call void @_ZN12G1GCCountersC1EP15G1CollectedHeap(ptr noundef nonnull align 4 dereferenceable(12) %3, ptr noundef nonnull %0) #23
  call void @_ZN5Mutex6unlockEv(ptr noundef nonnull align 8 dereferenceable(104) %5) #23
  br label %_ZL19collection_countersP15G1CollectedHeap.exit

_ZL19collection_countersP15G1CollectedHeap.exit:  ; preds = %_ZN11MutexLockerC2EP5MutexNS0_18SafepointCheckFlagE.exit.thread.i, %6
  %.sroa.0.0.copyload.i = load i64, ptr %3, align 8
  %.sroa.2.0..sroa_idx.i = getelementptr inbounds i8, ptr %3, i64 8
  %.sroa.2.0.copyload.i = load i32, ptr %.sroa.2.0..sroa_idx.i, align 8
  call void @llvm.lifetime.end.p0(i64 12, ptr nonnull %3)
  store i64 %.sroa.0.0.copyload.i, ptr %4, align 8
  %.sroa.2.0..sroa_idx = getelementptr inbounds i8, ptr %4, i64 8
  store i32 %.sroa.2.0.copyload.i, ptr %.sroa.2.0..sroa_idx, align 8
  %7 = call noundef zeroext i1 @_ZN15G1CollectedHeap11try_collectEN7GCCause5CauseERK12G1GCCounters(ptr noundef nonnull align 8 dereferenceable(1488) %0, i32 noundef %1, ptr noundef nonnull align 4 dereferenceable(12) %4)
  ret void
}